Certificate:
    Data:
        Version: 3 (0x2)
        Serial Number: 3 (0x3)
    Signature Algorithm: sha1WithRSAEncryption
        Issuer: C=US, ST=PA, L=Pittsburgh, O=houqp-cloud, OU=changeme, CN=changeme/name=houqp/emailAddress=dave2008713@gmail.com
        Validity
            Not Before: Dec 19 07:14:14 2013 GMT
            Not After : Dec 17 07:14:14 2023 GMT
        Subject: C=US, ST=CA, L=SanFrancisco, O=Fort-Funston, OU=changeme, CN=ddy/name=ddy/emailAddress=mail@host.domain
        Subject Public Key Info:
            Public Key Algorithm: rsaEncryption
                Public-Key: (1024 bit)
                Modulus:
                    00:96:76:15:13:fe:6f:ea:ef:b0:df:18:e0:a0:4e:
                    e0:27:fe:fd:2f:d7:b2:af:b7:ce:32:13:25:9d:8b:
                    22:48:5f:27:24:dd:91:f8:72:c9:37:69:2e:93:6b:
                    93:0b:a9:18:c4:b6:5c:ee:d7:27:35:9f:00:5d:ee:
                    4f:61:64:01:da:75:26:e3:c6:54:c4:02:61:c6:93:
                    10:4f:73:f0:79:31:fc:b9:14:7f:a5:b4:94:e1:10:
                    e8:ff:e3:0e:5a:e1:63:88:f6:71:07:3f:8e:2d:17:
                    d2:ff:67:1d:5b:53:c0:1a:a0:80:f6:49:74:a4:72:
                    00:33:ce:77:cf:d7:5b:a5:3f
                Exponent: 65537 (0x10001)
        X509v3 extensions:
            X509v3 Basic Constraints: 
                CA:FALSE
            Netscape Comment: 
                Easy-RSA Generated Certificate
            X509v3 Subject Key Identifier: 
                54:7D:F0:D9:03:BB:C1:DC:24:6D:92:B6:E0:0E:EA:88:A9:29:C5:BB
            X509v3 Authority Key Identifier: 
                keyid:CA:FE:F6:18:21:36:ED:98:2B:48:9B:0A:C5:8F:E3:CC:AC:DE:52:19
                DirName:/C=US/ST=PA/L=Pittsburgh/O=houqp-cloud/OU=changeme/CN=changeme/name=houqp/emailAddress=dave2008713@gmail.com
                serial:96:81:F9:1D:52:AE:B1:30

            X509v3 Extended Key Usage: 
                TLS Web Client Authentication
            X509v3 Key Usage: 
                Digital Signature
    Signature Algorithm: sha1WithRSAEncryption
         6e:db:16:69:ce:81:9c:88:cf:f4:e2:81:05:b6:e0:a7:90:d2:
         fc:1c:79:0b:0e:d8:0c:c5:e4:df:c4:1f:95:af:6c:95:9b:26:
         35:d9:46:d9:91:32:d2:9e:92:9e:67:23:1d:0e:e7:04:8d:5e:
         48:eb:97:74:65:20:12:df:c4:ab:e5:20:35:d4:6e:3d:07:89:
         ec:d0:c0:73:c8:63:3e:62:a6:cd:c9:7f:73:3f:45:d4:52:07:
         47:2e:29:2d:a5:cd:61:80:ef:bd:ea:67:16:19:67:06:45:91:
         86:01:b2:b4:2a:f0:45:93:09:3c:66:c7:c7:2b:f5:57:8d:81:
         3a:76
-----BEGIN CERTIFICATE-----
MIIECzCCA3SgAwIBAgIBAzANBgkqhkiG9w0BAQUFADCBoTELMAkGA1UEBhMCVVMx
CzAJBgNVBAgTAlBBMRMwEQYDVQQHEwpQaXR0c2J1cmdoMRQwEgYDVQQKEwtob3Vx
cC1jbG91ZDERMA8GA1UECxMIY2hhbmdlbWUxETAPBgNVBAMTCGNoYW5nZW1lMQ4w
DAYDVQQpEwVob3VxcDEkMCIGCSqGSIb3DQEJARYVZGF2ZTIwMDg3MTNAZ21haWwu
Y29tMB4XDTEzMTIxOTA3MTQxNFoXDTIzMTIxNzA3MTQxNFowgZgxCzAJBgNVBAYT
AlVTMQswCQYDVQQIEwJDQTEVMBMGA1UEBxMMU2FuRnJhbmNpc2NvMRUwEwYDVQQK
EwxGb3J0LUZ1bnN0b24xETAPBgNVBAsTCGNoYW5nZW1lMQwwCgYDVQQDEwNkZHkx
DDAKBgNVBCkTA2RkeTEfMB0GCSqGSIb3DQEJARYQbWFpbEBob3N0LmRvbWFpbjCB
nzANBgkqhkiG9w0BAQEFAAOBjQAwgYkCgYEAlnYVE/5v6u+w3xjgoE7gJ/79L9ey
r7fOMhMlnYsiSF8nJN2R+HLJN2kuk2uTC6kYxLZc7tcnNZ8AXe5PYWQB2nUm48ZU
xAJhxpMQT3PweTH8uRR/pbSU4RDo/+MOWuFjiPZxBz+OLRfS/2cdW1PAGqCA9kl0
pHIAM853z9dbpT8CAwEAAaOCAVgwggFUMAkGA1UdEwQCMAAwLQYJYIZIAYb4QgEN
BCAWHkVhc3ktUlNBIEdlbmVyYXRlZCBDZXJ0aWZpY2F0ZTAdBgNVHQ4EFgQUVH3w
2QO7wdwkbZK24A7qiKkpxbswgdYGA1UdIwSBzjCBy4AUyv72GCE27ZgrSJsKxY/j
zKzeUhmhgaekgaQwgaExCzAJBgNVBAYTAlVTMQswCQYDVQQIEwJQQTETMBEGA1UE
BxMKUGl0dHNidXJnaDEUMBIGA1UEChMLaG91cXAtY2xvdWQxETAPBgNVBAsTCGNo
YW5nZW1lMREwDwYDVQQDEwhjaGFuZ2VtZTEOMAwGA1UEKRMFaG91cXAxJDAiBgkq
hkiG9w0BCQEWFWRhdmUyMDA4NzEzQGdtYWlsLmNvbYIJAJaB+R1SrrEwMBMGA1Ud
JQQMMAoGCCsGAQUFBwMCMAsGA1UdDwQEAwIHgDANBgkqhkiG9w0BAQUFAAOBgQBu
2xZpzoGciM/04oEFtuCnkNL8HHkLDtgMxeTfxB+Vr2yVmyY12UbZkTLSnpKeZyMd
DucEjV5I65d0ZSAS38Sr5SA11G49B4ns0MBzyGM+YqbNyX9zP0XUUgdHLiktpc1h
gO+96mcWGWcGRZGGAbK0KvBFkwk8ZsfHK/VXjYE6dg==
-----END CERTIFICATE-----
